; Function Attrs: mustprogress nounwind uwtable
define dso_local void @_ZN5clang4Sema27ActOnCXXExitDeclaratorScopeEPNS_5ScopeERKNS_12CXXScopeSpecE(ptr noundef nonnull align 8 dereferenceable(17560) %0, ptr noundef %1, ptr nocapture noundef nonnull readonly align 8 dereferenceable(48) %2) local_unnamed_addr #0 align 2 {
  %4 = load i32, ptr %2, align 8
  %5 = icmp ne i32 %4, 0
  %6 = getelementptr inbounds nuw i8, ptr %2, i64 4
  %7 = load i32, ptr %6, align 4
  %8 = icmp ne i32 %7, 0
  %9 = select i1 %5, i1 %8, i1 false
  %10 = getelementptr inbounds nuw i8, ptr %2, i64 8
  %11 = load ptr, ptr %10, align 8
  %12 = icmp eq ptr %11, null
  %or.cond = select i1 %9, i1 %12, i1 false
  br i1 %or.cond, label %13, label %_ZNK5clang12CXXScopeSpec9isInvalidEv.exit.thread

_ZNK5clang12CXXScopeSpec9isInvalidEv.exit.thread: ; preds = %3
  tail call void @_ZN5clang4Sema21ExitDeclaratorContextEPNS_5ScopeE(ptr noundef nonnull align 8 dereferenceable(17560) %0, ptr noundef %1) #15
  br label %13

13:                                               ; preds = %3, %_ZNK5clang12CXXScopeSpec9isInvalidEv.exit.thread
  ret void
}